(dp0
S'test'
p1
c__builtin__
set
p2
((lp3
I0
aI1
aI5
aI9
aI17
aI18
aI19
aI22
aI24
aI32
aI33
aI35
aI37
aI38
aI39
aI41
aI43
aI44
aI45
aI46
aI49
aI50
aI55
aI58
aI59
aI60
aI63
aI64
aI65
aI67
aI68
aI69
aI70
aI71
aI72
aI78
aI79
aI80
aI83
aI84
aI86
aI87
aI88
aI90
aI92
aI93
aI94
aI96
aI97
aI99
aI100
aI101
aI105
aI110
aI113
aI116
aI119
aI120
aI124
aI126
aI127
aI131
aI132
aI133
aI136
aI137
aI138
aI139
aI140
aI141
aI142
aI145
aI146
aI147
aI149
aI151
aI152
aI154
aI158
aI159
aI160
aI163
aI165
aI176
aI177
aI178
aI183
aI185
aI187
aI188
aI190
aI191
aI196
aI197
aI199
aI202
aI204
aI210
aI213
aI214
aI215
aI216
aI217
aI219
aI221
aI222
aI227
aI228
aI229
aI231
aI233
aI235
aI237
aI238
aI239
aI241
aI244
atp4
Rp5
sS'train'
p6
g2
((lp7
I0
aI1
aI4
aI5
aI9
aI10
aI13
aI14
aI15
aI16
aI21
aI22
aI23
aI24
aI30
aI32
aI34
aI35
aI42
aI43
aI47
aI49
aI50
aI52
aI53
aI54
aI55
aI56
aI57
aI58
aI59
aI60
aI61
aI62
aI63
aI64
aI65
aI66
aI67
aI68
aI69
aI70
aI71
aI72
aI73
aI75
aI76
aI78
aI80
aI81
aI83
aI84
aI85
aI87
aI88
aI94
aI95
aI97
aI98
aI99
aI100
aI101
aI102
aI105
aI106
aI110
aI116
aI117
aI118
aI120
aI121
aI122
aI123
aI124
aI126
aI130
aI131
aI132
aI133
aI141
aI142
aI143
aI144
aI145
aI148
aI154
aI157
aI159
aI160
aI162
aI163
aI173
aI174
aI176
aI177
aI184
aI192
aI193
aI194
aI195
aI196
aI198
aI199
aI200
aI201
aI207
aI209
aI210
aI211
aI213
aI214
aI215
aI222
aI223
aI224
aI225
aI231
aI233
aI235
aI237
aI243
aI244
aI245
aI246
aI247
aI248
aI249
aI250
aI251
aI252
aI253
aI255
aI256
aI259
aI260
aI261
aI264
aI266
aI267
aI270
aI271
aI274
aI275
aI277
aI278
aI281
aI282
aI285
aI287
aI288
aI290
aI291
aI295
aI296
aI297
aI298
aI299
aI300
aI301
aI302
aI303
aI304
aI306
aI307
aI308
aI309
aI312
aI319
aI320
aI326
aI327
aI329
aI333
aI335
aI338
aI342
aI350
aI351
aI352
aI353
aI354
aI355
aI356
aI357
aI360
aI362
aI363
aI364
aI366
aI367
aI368
aI372
aI373
aI374
aI376
aI377
aI381
aI384
aI387
aI389
aI395
aI396
aI397
aI398
aI399
aI402
aI403
aI404
aI405
aI406
aI407
aI409
aI410
aI412
aI420
aI421
aI427
aI428
aI432
aI433
aI436
aI439
aI441
aI444
aI446
aI447
aI448
aI449
aI450
aI451
aI453
aI454
aI455
aI456
aI457
aI458
aI459
aI464
aI465
aI466
aI472
aI473
aI475
aI476
aI480
aI482
aI483
aI484
aI485
aI486
aI487
aI489
aI492
aI495
aI497
aI499
aI501
aI505
aI506
aI507
aI509
aI513
aI514
aI515
aI516
aI518
aI519
aI522
aI527
aI528
aI529
aI531
aI532
aI534
aI536
aI538
aI539
aI540
aI541
aI543
aI547
aI553
aI555
aI556
aI561
aI562
aI564
aI565
aI568
aI569
aI571
aI573
aI579
aI581
aI584
aI585
aI586
aI587
aI589
aI590
aI591
aI592
aI593
aI594
aI596
aI599
aI603
aI606
aI608
aI610
aI612
aI613
aI614
aI615
aI619
aI621
aI622
aI623
aI624
aI625
aI626
aI627
aI628
aI637
aI642
aI645
aI646
aI647
aI652
aI654
aI659
aI660
aI661
aI662
aI663
aI664
aI665
aI670
aI672
aI677
aI681
aI682
aI683
aI684
aI686
aI687
aI688
aI692
aI693
aI696
aI697
aI698
aI705
aI707
aI708
aI711
aI716
aI724
aI727
aI728
aI731
aI732
aI733
aI739
aI741
atp8
Rp9
s.